target datalayout = "e-m:e-p270:32:32-p271:32:32-p272:64:64-i64:64-i128:128-f80:128-n8:16:32:64-S128"
target triple = "x86_64-pc-linux-gnu"

%class.LinearSequence = type <{ %class.Sequence, %"class.std::map", i8, [7 x i8] }>
%class.Sequence = type { ptr }
%"class.std::map" = type { %"class.std::_Rb_tree" }
%"class.std::_Rb_tree" = type { %"struct.std::_Rb_tree<int, std::pair<const int, int>, std::_Select1st<std::pair<const int, int>>, std::less<int>>::_Rb_tree_impl" }
%"struct.std::_Rb_tree<int, std::pair<const int, int>, std::_Select1st<std::pair<const int, int>>, std::less<int>>::_Rb_tree_impl" = type { %"struct.std::_Rb_tree_key_compare", %"struct.std::_Rb_tree_header" }
%"struct.std::_Rb_tree_key_compare" = type { %"struct.std::less" }
%"struct.std::less" = type { i8 }
%"struct.std::_Rb_tree_header" = type { %"struct.std::_Rb_tree_node_base", i64 }
%"struct.std::_Rb_tree_node_base" = type { i32, ptr, ptr, ptr }

; Function Attrs: noreturn nounwind uwtable
define linkonce_odr hidden void @__clang_call_terminate(ptr noundef %0) #7 comdat {
  %2 = call ptr @__cxa_begin_catch(ptr %0) #3
  call void @_ZSt9terminatev() #13
  unreachable
}

; Function Attrs: mustprogress nounwind uwtable
define linkonce_odr dso_local void @_ZNSt15_Rb_tree_header8_M_resetEv(ptr noundef nonnull align 8 dereferenceable(40) %0) #5 comdat align 2 {
  %2 = alloca ptr, align 8
  store ptr %0, ptr %2, align 8
  %3 = load ptr, ptr %2, align 8
  %4 = getelementptr inbounds %"struct.std::_Rb_tree_header", ptr %3, i32 0, i32 0
  %5 = getelementptr inbounds %"struct.std::_Rb_tree_node_base", ptr %4, i32 0, i32 1
  store ptr null, ptr %5, align 8
  %6 = getelementptr inbounds %"struct.std::_Rb_tree_header", ptr %3, i32 0, i32 0
  %7 = getelementptr inbounds %"struct.std::_Rb_tree_header", ptr %3, i32 0, i32 0
  %8 = getelementptr inbounds %"struct.std::_Rb_tree_node_base", ptr %7, i32 0, i32 2
  store ptr %6, ptr %8, align 8
  %9 = getelementptr inbounds %"struct.std::_Rb_tree_header", ptr %3, i32 0, i32 0
  %10 = getelementptr inbounds %"struct.std::_Rb_tree_header", ptr %3, i32 0, i32 0
  %11 = getelementptr inbounds %"struct.std::_Rb_tree_node_base", ptr %10, i32 0, i32 3
  store ptr %9, ptr %11, align 8
  %12 = getelementptr inbounds %"struct.std::_Rb_tree_header", ptr %3, i32 0, i32 1
  store i64 0, ptr %12, align 8
  ret void
}

; Function Attrs: mustprogress nounwind uwtable
define linkonce_odr dso_local void @_ZNSt15__new_allocatorISt13_Rb_tree_nodeISt4pairIKiiEEEC2Ev(ptr noundef nonnull align 1 dereferenceable(1) %0) unnamed_addr #5 comdat align 2 {
  %2 = alloca ptr, align 8
  store ptr %0, ptr %2, align 8
  ret void
}

; Function Attrs: mustprogress nounwind uwtable
define linkonce_odr dso_local void @_ZNSt15_Rb_tree_headerC2Ev(ptr noundef nonnull align 8 dereferenceable(40) %0) unnamed_addr #5 comdat align 2 personality ptr @__gxx_personality_v0 {
  %2 = alloca ptr, align 8
  store ptr %0, ptr %2, align 8
  %3 = load ptr, ptr %2, align 8
  %4 = getelementptr inbounds %"struct.std::_Rb_tree_header", ptr %3, i32 0, i32 0
  %5 = getelementptr inbounds %"struct.std::_Rb_tree_node_base", ptr %4, i32 0, i32 0
  store i32 0, ptr %5, align 8
  invoke void @_ZNSt15_Rb_tree_header8_M_resetEv(ptr noundef nonnull align 8 dereferenceable(40) %3)
          to label %6 unwind label %7

6:                                                ; preds = %1
  ret void

7:                                                ; preds = %1
  %8 = landingpad { ptr, i32 }
          catch ptr null
  %9 = extractvalue { ptr, i32 } %8, 0
  call void @__clang_call_terminate(ptr %9) #13
  unreachable
}

; Function Attrs: mustprogress nounwind uwtable
define linkonce_odr dso_local void @_ZNSt20_Rb_tree_key_compareISt4lessIiEEC2Ev(ptr noundef nonnull align 1 dereferenceable(1) %0) unnamed_addr #5 comdat align 2 {
  %2 = alloca ptr, align 8
  store ptr %0, ptr %2, align 8
  ret void
}

; Function Attrs: mustprogress nounwind uwtable
define linkonce_odr dso_local void @_ZNSaISt13_Rb_tree_nodeISt4pairIKiiEEEC2Ev(ptr noundef nonnull align 1 dereferenceable(1) %0) unnamed_addr #5 comdat align 2 {
  %2 = alloca ptr, align 8
  store ptr %0, ptr %2, align 8
  %3 = load ptr, ptr %2, align 8
  call void @_ZNSt15__new_allocatorISt13_Rb_tree_nodeISt4pairIKiiEEEC2Ev(ptr noundef nonnull align 1 dereferenceable(1) %3) #3
  ret void
}

; Function Attrs: mustprogress nounwind uwtable
define linkonce_odr dso_local void @_ZNSt8_Rb_treeIiSt4pairIKiiESt10_Select1stIS2_ESt4lessIiESaIS2_EE13_Rb_tree_implIS6_Lb1EEC2Ev(ptr noundef nonnull align 8 dereferenceable(48) %0) unnamed_addr #5 comdat align 2 {
  %2 = alloca ptr, align 8
  store ptr %0, ptr %2, align 8
  %3 = load ptr, ptr %2, align 8
  call void @_ZNSaISt13_Rb_tree_nodeISt4pairIKiiEEEC2Ev(ptr noundef nonnull align 1 dereferenceable(1) %3) #3
  call void @_ZNSt20_Rb_tree_key_compareISt4lessIiEEC2Ev(ptr noundef nonnull align 1 dereferenceable(1) %3) #3
  %4 = getelementptr inbounds i8, ptr %3, i64 8
  call void @_ZNSt15_Rb_tree_headerC2Ev(ptr noundef nonnull align 8 dereferenceable(40) %4) #3
  ret void
}

; Function Attrs: mustprogress nounwind uwtable
define linkonce_odr dso_local void @_ZNSt8_Rb_treeIiSt4pairIKiiESt10_Select1stIS2_ESt4lessIiESaIS2_EEC2Ev(ptr noundef nonnull align 8 dereferenceable(48) %0) unnamed_addr #5 comdat align 2 {
  %2 = alloca ptr, align 8
  store ptr %0, ptr %2, align 8
  %3 = load ptr, ptr %2, align 8
  %4 = getelementptr inbounds %"class.std::_Rb_tree", ptr %3, i32 0, i32 0
  call void @_ZNSt8_Rb_treeIiSt4pairIKiiESt10_Select1stIS2_ESt4lessIiESaIS2_EE13_Rb_tree_implIS6_Lb1EEC2Ev(ptr noundef nonnull align 8 dereferenceable(48) %4) #3
  ret void
}

; Function Attrs: mustprogress nounwind uwtable
define linkonce_odr dso_local void @_ZNSt3mapIiiSt4lessIiESaISt4pairIKiiEEEC2Ev(ptr noundef nonnull align 8 dereferenceable(48) %0) unnamed_addr #5 comdat align 2 {
  %2 = alloca ptr, align 8
  store ptr %0, ptr %2, align 8
  %3 = load ptr, ptr %2, align 8
  %4 = getelementptr inbounds %"class.std::map", ptr %3, i32 0, i32 0
  call void @_ZNSt8_Rb_treeIiSt4pairIKiiESt10_Select1stIS2_ESt4lessIiESaIS2_EEC2Ev(ptr noundef nonnull align 8 dereferenceable(48) %4) #3
  ret void
}

; Function Attrs: mustprogress uwtable
define dso_local void @_ZN14LinearSequenceC2Ec(ptr noundef nonnull align 8 dereferenceable(57) %0, i8 noundef signext %1) unnamed_addr #4 align 2 {
  %3 = alloca ptr, align 8
  %4 = alloca i8, align 1
  store ptr %0, ptr %3, align 8
  store i8 %1, ptr %4, align 1
  %5 = load ptr, ptr %3, align 8
  call void @_ZN8SequenceC2Ev(ptr noundef nonnull align 8 dereferenceable(8) %5)
  store ptr getelementptr inbounds ({ [12 x ptr] }, ptr @_ZTV14LinearSequence, i32 0, i32 0, i32 2), ptr %5, align 8
  %6 = getelementptr inbounds %class.LinearSequence, ptr %5, i32 0, i32 1
  call void @_ZNSt3mapIiiSt4lessIiESaISt4pairIKiiEEEC2Ev(ptr noundef nonnull align 8 dereferenceable(48) %6) #3
  %7 = getelementptr inbounds %class.LinearSequence, ptr %5, i32 0, i32 2
  %8 = load i8, ptr %4, align 1
  store i8 %8, ptr %7, align 8
  ret void
}