; Function Attrs: mustprogress uwtable
define dso_local void @_ZN14LinearSequenceC2Ec(ptr noundef nonnull align 8 dereferenceable(57) %0, i8 noundef signext %1) unnamed_addr #3 align 2 personality ptr @__gxx_personality_v0 {
  tail call void @_ZN8SequenceC2Ev(ptr noundef nonnull align 8 dereferenceable(8) %0)
  store ptr getelementptr inbounds ({ [12 x ptr] }, ptr @_ZTV14LinearSequence, i64 0, i32 0, i64 2), ptr %0, align 8
  %3 = getelementptr inbounds i8, ptr %0, i64 16
  store i32 0, ptr %3, align 8
  %4 = getelementptr inbounds i8, ptr %0, i64 24
  store ptr null, ptr %4, align 8
  %5 = getelementptr inbounds i8, ptr %0, i64 32
  store ptr %3, ptr %5, align 8
  %6 = getelementptr inbounds i8, ptr %0, i64 40
  store ptr %3, ptr %6, align 8
  %7 = getelementptr inbounds i8, ptr %0, i64 48
  store i64 0, ptr %7, align 8
  %8 = getelementptr inbounds i8, ptr %0, i64 56
  store i8 %1, ptr %8, align 8
  ret void
}